target datalayout = "e-m:e-p270:32:32-p271:32:32-p272:64:64-i64:64-i128:128-f80:128-n8:16:32:64-S128"
target triple = "x86_64-pc-linux-gnu"

%struct.StateVars = type { i32, i32, i32, i32, i8, i64 }
%struct.MelDecoderState = type { i8, i8, i8 }

@mel_e = internal constant [13 x i8] c"\00\00\00\01\01\01\02\02\02\03\03\04\05", align 1

; Function Attrs: nounwind uwtable
define internal i32 @jpeg2000_import_bit(ptr noundef %0, ptr noundef %1, i32 noundef %2) #0 {
  %4 = alloca ptr, align 8
  %5 = alloca ptr, align 8
  %6 = alloca i32, align 4
  %7 = alloca i32, align 4
  %8 = alloca i32, align 4
  store ptr %0, ptr %4, align 8, !tbaa !47
  store ptr %1, ptr %5, align 8, !tbaa !20
  store i32 %2, ptr %6, align 4, !tbaa !15
  call void @llvm.lifetime.start.p0(i64 4, ptr %7) #10
  %9 = load ptr, ptr %4, align 8, !tbaa !47
  %10 = getelementptr inbounds nuw %struct.StateVars, ptr %9, i32 0, i32 0
  %11 = load i32, ptr %10, align 8, !tbaa !54
  %12 = load i32, ptr %6, align 4, !tbaa !15
  %13 = icmp ult i32 %11, %12
  %14 = zext i1 %13 to i32
  store i32 %14, ptr %7, align 4, !tbaa !15
  call void @llvm.lifetime.start.p0(i64 4, ptr %8) #10
  %15 = load ptr, ptr %4, align 8, !tbaa !47
  %16 = getelementptr inbounds nuw %struct.StateVars, ptr %15, i32 0, i32 0
  %17 = load i32, ptr %16, align 8, !tbaa !54
  %18 = load i32, ptr %6, align 4, !tbaa !15
  %19 = sub i32 %18, 1
  %20 = icmp ugt i32 %17, %19
  br i1 %20, label %21, label %24

21:                                               ; preds = %3
  %22 = load i32, ptr %6, align 4, !tbaa !15
  %23 = sub i32 %22, 1
  br label %28

24:                                               ; preds = %3
  %25 = load ptr, ptr %4, align 8, !tbaa !47
  %26 = getelementptr inbounds nuw %struct.StateVars, ptr %25, i32 0, i32 0
  %27 = load i32, ptr %26, align 8, !tbaa !54
  br label %28

28:                                               ; preds = %24, %21
  %29 = phi i32 [ %23, %21 ], [ %27, %24 ]
  store i32 %29, ptr %8, align 4, !tbaa !15
  %30 = load ptr, ptr %4, align 8, !tbaa !47
  %31 = getelementptr inbounds nuw %struct.StateVars, ptr %30, i32 0, i32 1
  %32 = load i32, ptr %31, align 4, !tbaa !53
  %33 = icmp eq i32 %32, 0
  br i1 %33, label %34, label %61

34:                                               ; preds = %28
  %35 = load ptr, ptr %4, align 8, !tbaa !47
  %36 = getelementptr inbounds nuw %struct.StateVars, ptr %35, i32 0, i32 2
  %37 = load i32, ptr %36, align 8, !tbaa !52
  %38 = icmp eq i32 %37, 255
  %39 = select i1 %38, i32 7, i32 8
  %40 = load ptr, ptr %4, align 8, !tbaa !47
  %41 = getelementptr inbounds nuw %struct.StateVars, ptr %40, i32 0, i32 1
  store i32 %39, ptr %41, align 4, !tbaa !53
  %42 = load i32, ptr %7, align 4, !tbaa !15
  %43 = load ptr, ptr %4, align 8, !tbaa !47
  %44 = getelementptr inbounds nuw %struct.StateVars, ptr %43, i32 0, i32 0
  %45 = load i32, ptr %44, align 8, !tbaa !54
  %46 = add nsw i32 %45, %42
  store i32 %46, ptr %44, align 8, !tbaa !54
  %47 = load i32, ptr %7, align 4, !tbaa !15
  %48 = icmp ne i32 %47, 0
  br i1 %48, label %49, label %56

49:                                               ; preds = %34
  %50 = load ptr, ptr %5, align 8, !tbaa !20
  %51 = load i32, ptr %8, align 4, !tbaa !15
  %52 = sext i32 %51 to i64
  %53 = getelementptr inbounds i8, ptr %50, i64 %52
  %54 = load i8, ptr %53, align 1, !tbaa !17
  %55 = zext i8 %54 to i32
  br label %57

56:                                               ; preds = %34
  br label %57

57:                                               ; preds = %56, %49
  %58 = phi i32 [ %55, %49 ], [ 255, %56 ]
  %59 = load ptr, ptr %4, align 8, !tbaa !47
  %60 = getelementptr inbounds nuw %struct.StateVars, ptr %59, i32 0, i32 2
  store i32 %58, ptr %60, align 8, !tbaa !52
  br label %61

61:                                               ; preds = %57, %28
  %62 = load ptr, ptr %4, align 8, !tbaa !47
  %63 = getelementptr inbounds nuw %struct.StateVars, ptr %62, i32 0, i32 1
  %64 = load i32, ptr %63, align 4, !tbaa !53
  %65 = sub i32 %64, 1
  store i32 %65, ptr %63, align 4, !tbaa !53
  %66 = load ptr, ptr %4, align 8, !tbaa !47
  %67 = getelementptr inbounds nuw %struct.StateVars, ptr %66, i32 0, i32 2
  %68 = load i32, ptr %67, align 8, !tbaa !52
  %69 = load ptr, ptr %4, align 8, !tbaa !47
  %70 = getelementptr inbounds nuw %struct.StateVars, ptr %69, i32 0, i32 1
  %71 = load i32, ptr %70, align 4, !tbaa !53
  %72 = lshr i32 %68, %71
  %73 = and i32 %72, 1
  call void @llvm.lifetime.end.p0(i64 4, ptr %8) #10
  call void @llvm.lifetime.end.p0(i64 4, ptr %7) #10
  ret i32 %73
}

; Function Attrs: nounwind uwtable
define internal i32 @jpeg2000_decode_mel_sym(ptr noundef %0, ptr noundef %1, ptr noundef %2, i32 noundef %3) #0 {
  %5 = alloca i32, align 4
  %6 = alloca ptr, align 8
  %7 = alloca ptr, align 8
  %8 = alloca ptr, align 8
  %9 = alloca i32, align 4
  %10 = alloca i8, align 1
  %11 = alloca i8, align 1
  store ptr %0, ptr %6, align 8, !tbaa !57
  store ptr %1, ptr %7, align 8, !tbaa !47
  store ptr %2, ptr %8, align 8, !tbaa !20
  store i32 %3, ptr %9, align 4, !tbaa !15
  %12 = load ptr, ptr %6, align 8, !tbaa !57
  %13 = getelementptr inbounds nuw %struct.MelDecoderState, ptr %12, i32 0, i32 1
  %14 = load i8, ptr %13, align 1, !tbaa !61
  %15 = zext i8 %14 to i32
  %16 = icmp eq i32 %15, 0
  br i1 %16, label %17, label %113

17:                                               ; preds = %4
  %18 = load ptr, ptr %6, align 8, !tbaa !57
  %19 = getelementptr inbounds nuw %struct.MelDecoderState, ptr %18, i32 0, i32 2
  %20 = load i8, ptr %19, align 1, !tbaa !62
  %21 = zext i8 %20 to i32
  %22 = icmp eq i32 %21, 0
  br i1 %22, label %23, label %113

23:                                               ; preds = %17
  call void @llvm.lifetime.start.p0(i64 1, ptr %10) #10
  call void @llvm.lifetime.start.p0(i64 1, ptr %11) #10
  %24 = load ptr, ptr %6, align 8, !tbaa !57
  %25 = getelementptr inbounds nuw %struct.MelDecoderState, ptr %24, i32 0, i32 0
  %26 = load i8, ptr %25, align 1, !tbaa !59
  %27 = zext i8 %26 to i64
  %28 = getelementptr inbounds nuw [13 x i8], ptr @mel_e, i64 0, i64 %27
  %29 = load i8, ptr %28, align 1, !tbaa !17
  store i8 %29, ptr %10, align 1, !tbaa !17
  %30 = load ptr, ptr %7, align 8, !tbaa !47
  %31 = load ptr, ptr %8, align 8, !tbaa !20
  %32 = load i32, ptr %9, align 4, !tbaa !15
  %33 = call i32 @jpeg2000_import_bit(ptr noundef %30, ptr noundef %31, i32 noundef %32)
  %34 = trunc i32 %33 to i8
  store i8 %34, ptr %11, align 1, !tbaa !17
  %35 = load i8, ptr %11, align 1, !tbaa !17
  %36 = zext i8 %35 to i32
  %37 = icmp eq i32 %36, 1
  br i1 %37, label %38, label %63

38:                                               ; preds = %23
  %39 = load i8, ptr %10, align 1, !tbaa !17
  %40 = zext i8 %39 to i32
  %41 = shl i32 1, %40
  %42 = trunc i32 %41 to i8
  %43 = load ptr, ptr %6, align 8, !tbaa !57
  %44 = getelementptr inbounds nuw %struct.MelDecoderState, ptr %43, i32 0, i32 1
  store i8 %42, ptr %44, align 1, !tbaa !61
  %45 = load ptr, ptr %6, align 8, !tbaa !57
  %46 = getelementptr inbounds nuw %struct.MelDecoderState, ptr %45, i32 0, i32 0
  %47 = load i8, ptr %46, align 1, !tbaa !59
  %48 = zext i8 %47 to i32
  %49 = add nsw i32 %48, 1
  %50 = icmp sgt i32 12, %49
  br i1 %50, label %51, label %57

51:                                               ; preds = %38
  %52 = load ptr, ptr %6, align 8, !tbaa !57
  %53 = getelementptr inbounds nuw %struct.MelDecoderState, ptr %52, i32 0, i32 0
  %54 = load i8, ptr %53, align 1, !tbaa !59
  %55 = zext i8 %54 to i32
  %56 = add nsw i32 %55, 1
  br label %58

57:                                               ; preds = %38
  br label %58

58:                                               ; preds = %57, %51
  %59 = phi i32 [ %56, %51 ], [ 12, %57 ]
  %60 = trunc i32 %59 to i8
  %61 = load ptr, ptr %6, align 8, !tbaa !57
  %62 = getelementptr inbounds nuw %struct.MelDecoderState, ptr %61, i32 0, i32 0
  store i8 %60, ptr %62, align 1, !tbaa !59
  br label %112

63:                                               ; preds = %23
  %64 = load ptr, ptr %6, align 8, !tbaa !57
  %65 = getelementptr inbounds nuw %struct.MelDecoderState, ptr %64, i32 0, i32 1
  store i8 0, ptr %65, align 1, !tbaa !61
  br label %66

66:                                               ; preds = %70, %63
  %67 = load i8, ptr %10, align 1, !tbaa !17
  %68 = zext i8 %67 to i32
  %69 = icmp sgt i32 %68, 0
  br i1 %69, label %70, label %91

70:                                               ; preds = %66
  %71 = load ptr, ptr %7, align 8, !tbaa !47
  %72 = load ptr, ptr %8, align 8, !tbaa !20
  %73 = load i32, ptr %9, align 4, !tbaa !15
  %74 = call i32 @jpeg2000_import_bit(ptr noundef %71, ptr noundef %72, i32 noundef %73)
  %75 = trunc i32 %74 to i8
  store i8 %75, ptr %11, align 1, !tbaa !17
  %76 = load ptr, ptr %6, align 8, !tbaa !57
  %77 = getelementptr inbounds nuw %struct.MelDecoderState, ptr %76, i32 0, i32 1
  %78 = load i8, ptr %77, align 1, !tbaa !61
  %79 = zext i8 %78 to i32
  %80 = mul nsw i32 2, %79
  %81 = load i8, ptr %11, align 1, !tbaa !17
  %82 = zext i8 %81 to i32
  %83 = add nsw i32 %80, %82
  %84 = trunc i32 %83 to i8
  %85 = load ptr, ptr %6, align 8, !tbaa !57
  %86 = getelementptr inbounds nuw %struct.MelDecoderState, ptr %85, i32 0, i32 1
  store i8 %84, ptr %86, align 1, !tbaa !61
  %87 = load i8, ptr %10, align 1, !tbaa !17
  %88 = zext i8 %87 to i32
  %89 = sub nsw i32 %88, 1
  %90 = trunc i32 %89 to i8
  store i8 %90, ptr %10, align 1, !tbaa !17
  br label %66, !llvm.loop !90

91:                                               ; preds = %66
  %92 = load ptr, ptr %6, align 8, !tbaa !57
  %93 = getelementptr inbounds nuw %struct.MelDecoderState, ptr %92, i32 0, i32 0
  %94 = load i8, ptr %93, align 1, !tbaa !59
  %95 = zext i8 %94 to i32
  %96 = sub nsw i32 %95, 1
  %97 = icmp sgt i32 0, %96
  br i1 %97, label %98, label %99

98:                                               ; preds = %91
  br label %105

99:                                               ; preds = %91
  %100 = load ptr, ptr %6, align 8, !tbaa !57
  %101 = getelementptr inbounds nuw %struct.MelDecoderState, ptr %100, i32 0, i32 0
  %102 = load i8, ptr %101, align 1, !tbaa !59
  %103 = zext i8 %102 to i32
  %104 = sub nsw i32 %103, 1
  br label %105

105:                                              ; preds = %99, %98
  %106 = phi i32 [ 0, %98 ], [ %104, %99 ]
  %107 = trunc i32 %106 to i8
  %108 = load ptr, ptr %6, align 8, !tbaa !57
  %109 = getelementptr inbounds nuw %struct.MelDecoderState, ptr %108, i32 0, i32 0
  store i8 %107, ptr %109, align 1, !tbaa !59
  %110 = load ptr, ptr %6, align 8, !tbaa !57
  %111 = getelementptr inbounds nuw %struct.MelDecoderState, ptr %110, i32 0, i32 2
  store i8 1, ptr %111, align 1, !tbaa !62
  br label %112

112:                                              ; preds = %105, %58
  call void @llvm.lifetime.end.p0(i64 1, ptr %11) #10
  call void @llvm.lifetime.end.p0(i64 1, ptr %10) #10
  br label %113

113:                                              ; preds = %112, %17, %4
  %114 = load ptr, ptr %6, align 8, !tbaa !57
  %115 = getelementptr inbounds nuw %struct.MelDecoderState, ptr %114, i32 0, i32 1
  %116 = load i8, ptr %115, align 1, !tbaa !61
  %117 = zext i8 %116 to i32
  %118 = icmp sgt i32 %117, 0
  br i1 %118, label %119, label %126

119:                                              ; preds = %113
  %120 = load ptr, ptr %6, align 8, !tbaa !57
  %121 = getelementptr inbounds nuw %struct.MelDecoderState, ptr %120, i32 0, i32 1
  %122 = load i8, ptr %121, align 1, !tbaa !61
  %123 = zext i8 %122 to i32
  %124 = sub nsw i32 %123, 1
  %125 = trunc i32 %124 to i8
  store i8 %125, ptr %121, align 1, !tbaa !61
  store i32 0, ptr %5, align 4
  br label %129

126:                                              ; preds = %113
  %127 = load ptr, ptr %6, align 8, !tbaa !57
  %128 = getelementptr inbounds nuw %struct.MelDecoderState, ptr %127, i32 0, i32 2
  store i8 0, ptr %128, align 1, !tbaa !62
  store i32 1, ptr %5, align 4
  br label %129

129:                                              ; preds = %126, %119
  %130 = load i32, ptr %5, align 4
  ret i32 %130
}