; Function Attrs: nofree norecurse nosync nounwind memory(argmem: readwrite) uwtable
define internal fastcc range(i32 0, 2) i32 @jpeg2000_decode_mel_sym(ptr noundef nonnull captures(none) %0, ptr noundef nonnull captures(none) %1, ptr noundef readonly captures(none) %2, i32 noundef range(i32 2, 0) %3) unnamed_addr #6 {
  %5 = getelementptr inbounds nuw i8, ptr %0, i64 1
  %6 = load i8, ptr %5, align 1, !tbaa !47
  %7 = icmp eq i8 %6, 0
  br i1 %7, label %8, label %.thread

8:                                                ; preds = %4
  %9 = getelementptr inbounds nuw i8, ptr %0, i64 2
  %10 = load i8, ptr %9, align 1, !tbaa !48
  %11 = icmp eq i8 %10, 0
  br i1 %11, label %12, label %thread-pre-split.thread

12:                                               ; preds = %8
  %13 = load i8, ptr %0, align 1, !tbaa !45
  %14 = zext i8 %13 to i64
  %15 = getelementptr inbounds nuw [13 x i8], ptr @mel_e, i64 0, i64 %14
  %16 = load i8, ptr %15, align 1, !tbaa !34
  %17 = load i32, ptr %1, align 8, !tbaa !40
  %18 = add i32 %3, -1
  %..i = tail call i32 @llvm.umin.i32(i32 %17, i32 %18)
  %19 = getelementptr inbounds nuw i8, ptr %1, i64 4
  %20 = load i32, ptr %19, align 4, !tbaa !44
  %21 = icmp eq i32 %20, 0
  br i1 %21, label %22, label %._crit_edge.i

._crit_edge.i:                                    ; preds = %12
  %.phi.trans.insert.i = getelementptr inbounds nuw i8, ptr %1, i64 8
  %.pre.i = load i32, ptr %.phi.trans.insert.i, align 8, !tbaa !43
  br label %jpeg2000_import_bit.exit

22:                                               ; preds = %12
  %23 = icmp ult i32 %17, %3
  %24 = zext i1 %23 to i32
  %25 = getelementptr inbounds nuw i8, ptr %1, i64 8
  %26 = load i32, ptr %25, align 8, !tbaa !43
  %27 = icmp eq i32 %26, 255
  %28 = select i1 %27, i32 7, i32 8
  store i32 %28, ptr %19, align 4, !tbaa !44
  %29 = add nsw i32 %17, %24
  store i32 %29, ptr %1, align 8, !tbaa !40
  br i1 %23, label %30, label %35

30:                                               ; preds = %22
  %31 = sext i32 %..i to i64
  %32 = getelementptr inbounds i8, ptr %2, i64 %31
  %33 = load i8, ptr %32, align 1, !tbaa !34
  %34 = zext i8 %33 to i32
  br label %35

35:                                               ; preds = %30, %22
  %36 = phi i32 [ %34, %30 ], [ 255, %22 ]
  store i32 %36, ptr %25, align 8, !tbaa !43
  br label %jpeg2000_import_bit.exit

jpeg2000_import_bit.exit:                         ; preds = %._crit_edge.i, %35
  %.promoted = phi i32 [ %29, %35 ], [ %17, %._crit_edge.i ]
  %37 = phi i32 [ %36, %35 ], [ %.pre.i, %._crit_edge.i ]
  %38 = phi i32 [ %28, %35 ], [ %20, %._crit_edge.i ]
  %39 = add i32 %38, -1
  store i32 %39, ptr %19, align 4, !tbaa !44
  %40 = shl nuw i32 1, %39
  %41 = and i32 %40, %37
  %.not = icmp eq i32 %41, 0
  br i1 %.not, label %47, label %42

42:                                               ; preds = %jpeg2000_import_bit.exit
  %43 = zext nneg i8 %16 to i32
  %44 = shl nuw i32 1, %43
  %45 = trunc i32 %44 to i8
  store i8 %45, ptr %5, align 1, !tbaa !47
  %46 = tail call i8 @llvm.umin.i8(i8 %13, i8 11)
  %spec.select = add nuw nsw i8 %46, 1
  store i8 %spec.select, ptr %0, align 1, !tbaa !45
  br label %thread-pre-split

47:                                               ; preds = %jpeg2000_import_bit.exit
  store i8 0, ptr %5, align 1, !tbaa !47
  %.not3342 = icmp ult i8 %13, 3
  br i1 %.not3342, label %._crit_edge, label %.lr.ph

.lr.ph:                                           ; preds = %47
  %.phi.trans.insert.i38 = getelementptr inbounds nuw i8, ptr %1, i64 8
  br label %48

48:                                               ; preds = %.lr.ph, %jpeg2000_import_bit.exit40
  %49 = phi i32 [ %37, %.lr.ph ], [ %.pre.i3948, %jpeg2000_import_bit.exit40 ]
  %50 = phi i32 [ 0, %.lr.ph ], [ %74, %jpeg2000_import_bit.exit40 ]
  %51 = phi i32 [ %39, %.lr.ph ], [ %69, %jpeg2000_import_bit.exit40 ]
  %52 = phi i32 [ %.promoted, %.lr.ph ], [ %67, %jpeg2000_import_bit.exit40 ]
  %.043 = phi i8 [ %16, %.lr.ph ], [ %76, %jpeg2000_import_bit.exit40 ]
  %..i36 = tail call i32 @llvm.umin.i32(i32 %52, i32 %18)
  %53 = icmp eq i32 %51, 0
  br i1 %53, label %54, label %jpeg2000_import_bit.exit40

54:                                               ; preds = %48
  %55 = icmp ult i32 %52, %3
  %56 = zext i1 %55 to i32
  %57 = icmp eq i32 %49, 255
  %58 = select i1 %57, i32 7, i32 8
  store i32 %58, ptr %19, align 4, !tbaa !44
  %59 = add nsw i32 %52, %56
  store i32 %59, ptr %1, align 8, !tbaa !40
  br i1 %55, label %60, label %65

60:                                               ; preds = %54
  %61 = sext i32 %..i36 to i64
  %62 = getelementptr inbounds i8, ptr %2, i64 %61
  %63 = load i8, ptr %62, align 1, !tbaa !34
  %64 = zext i8 %63 to i32
  br label %65

65:                                               ; preds = %60, %54
  %66 = phi i32 [ %64, %60 ], [ 255, %54 ]
  store i32 %66, ptr %.phi.trans.insert.i38, align 8, !tbaa !43
  br label %jpeg2000_import_bit.exit40

jpeg2000_import_bit.exit40:                       ; preds = %48, %65
  %.pre.i3948 = phi i32 [ %66, %65 ], [ %49, %48 ]
  %67 = phi i32 [ %59, %65 ], [ %52, %48 ]
  %68 = phi i32 [ %58, %65 ], [ %51, %48 ]
  %69 = add i32 %68, -1
  store i32 %69, ptr %19, align 4, !tbaa !44
  %70 = lshr i32 %.pre.i3948, %69
  %71 = and i32 %70, 1
  %72 = shl nsw i32 %50, 1
  %73 = and i32 %72, 510
  %74 = or disjoint i32 %73, %71
  %75 = trunc i32 %74 to i8
  store i8 %75, ptr %5, align 1, !tbaa !47
  %76 = add i8 %.043, -1
  %.not33 = icmp eq i8 %76, 0
  br i1 %.not33, label %._crit_edge, label %48, !llvm.loop !51

._crit_edge:                                      ; preds = %jpeg2000_import_bit.exit40, %47
  %.pr50 = phi i8 [ 0, %47 ], [ %75, %jpeg2000_import_bit.exit40 ]
  %spec.select35 = tail call i8 @llvm.usub.sat.i8(i8 %13, i8 1)
  store i8 %spec.select35, ptr %0, align 1, !tbaa !45
  store i8 1, ptr %9, align 1, !tbaa !48
  br label %thread-pre-split

thread-pre-split:                                 ; preds = %._crit_edge, %42
  %77 = phi i8 [ %45, %42 ], [ %.pr50, %._crit_edge ]
  %.not34 = icmp eq i8 %77, 0
  br i1 %.not34, label %thread-pre-split.thread, label %.thread

.thread:                                          ; preds = %4, %thread-pre-split
  %78 = phi i8 [ %77, %thread-pre-split ], [ %6, %4 ]
  %79 = add i8 %78, -1
  store i8 %79, ptr %5, align 1, !tbaa !47
  br label %80

thread-pre-split.thread:                          ; preds = %8, %thread-pre-split
  store i8 0, ptr %9, align 1, !tbaa !48
  br label %80

80:                                               ; preds = %thread-pre-split.thread, %.thread
  %.028 = phi i32 [ 0, %.thread ], [ 1, %thread-pre-split.thread ]
  ret i32 %.028
}